(lp1
Vi
aVti
p2
aVa
aVsmaa
p3
aVkaM
p4
aVpra
p5
aVba
p6
aVla
p7
aVchChA
p8
aVto
p9
aVpi
p10
aVki
p11
aVya
p12
aVtkaa
p13
aVm
aVtra
p14
aVstha
p15
aVta
p16
aVvya
p17
aVbhi
p18
aVH
aV?
aVShta
p19
aVva
p20
aVnta
p21
aVt
aVdaa
p22
aVruu
p23
aVpa
p24
aVdha
p25
aVra
p26
aVsu
p27
aVke
p28
aVshi
p29
aVnii
p30
aVu
aV
aVsh
p31
aV-
aVma
p32
aVnu
p33
aVcha
p34
aVsva
p35
aVde
p36
aVshaM
p37
aVga
p38
aVntu
p39
aVtsu
p40
aVkaa
p41
aVsa
p42
aVnti
p43
aVte
p44
aVSha
p45
aVaM
p46
aVchi
p47
aVna
p48
aVme
p49
aVsti
p50
aVNaa
p51
aVrthaM
p52
aVbha
p53
aVtya
p54
aVsaa
p55
aVhaa
p56
aVyya
p57
aVaa
p58
aVka
p59
aVkta
p60
aVvaa
p61
aVn
aVe
aVshru
p62
aVtvaa
p63
aVtii
p64
aVlaa
p65
aV!
aVtrai
p66
aVni
p67
aVro
p68
aVddhu
p69
aVhaM
p70
aVchChaa
p71
aVmi
p72
aVnaa
p73
aVpuu
p74
aVrvaM
p75
aVdbhiH
p76
aVnya
p77
aVyaa
p78
aVNaM
p79
aVN
aVee
p80
aVlo
p81
aVkaH
p82
aVshchi
p83
aVdi
p84
aVgyaa
p85
aVsya
p86
aVnaM
p87
aVShTaM
p88
aVda
p89
aVrsha
p90
aVpraa
p91
aVpta
p92
aVvyaM
p93
aVtaa
p94
aVraa
p95
aVshaH
p96
aVraH
p97
aV"
aVha
p98
aVsha
p99
aVkya
p100
aVtpa
p101
aVrya
p102
aVntaM
p103
aVko
p104
aVnau
p105
aVpRRi
p106
aVShTa
p107
aVvi
p108
aVxa
p109
aVtraa
p110
aVNaaM
p111
aVNa
p112
aVii
p113
aVstra
p114
aVTaM
p115
aVmya
p116
aVk
aVkRRi
p117
aVmau
p118
aVyuH
p119
aVsaH
p120
aVyaM
p121
aVtaaM
p122
aVkaaM
p123
aVne
p124
aVShya
p125
aVmu
p126
aVdra
p127
aVkra
p128
aVraM
p129
aVntaH
p130
aVtha
p131
aVmaM
p132
aV'
aVpsya
p133
aVvRRi
p134
aVxaaH
p135
aVsaM
p136
aVsthaa
p137
aVpya
p138
aVpaa
p139
aVbhyaaM
p140
aVchCha
p141
aV~nchi
p142
aVmaa
p143
aVdRRi
p144
aVrshve
p145
aVgni
p146
aVdii
p147
aVi 
p148
aVtye
p149
aVyo
p150
aV~Nga
p151
aVnnaa
p152
aVvii
p153
aVtri
p154
aVri
p155
aVrtaM
p156
aVtu
p157
aVsmi
p158
aVrte
p159
aVtRRi
p160
aVbhya
p161
aVrpa
p162
aVDa
p163
aVvaM
p164
aVtaaH
p165
aVyi
p166
aVrtha
p167
aVku
p168
aVthaa
p169
aVgRRi
p170
aVpte
p171
aVli
p172
aVSyaa
p173
aVGYaa
p174
aV~Nke
p175
aVShNa
p176
aVjaM
p177
aVpe
p178
aVstaM
p179
aVDha
p180
aVste
p181
aVdya
p182
aVDi
p183
aVsvii
p184
aVtaM
p185
aVDhaM
p186
aVntri
p187
aVtsya
p188
aVroo
p189
aVrti
p190
aVtaH
p191
aVlu
p192
aVTha
p193
aVrva
p194
aVnde
p195
aVkhii
p196
aV~Ngya
p197
aVle
p198
aVtyaaH
p199
aVchaa
p200
aVM
aVnda
p201
aVrbhe
p202
aVtyai
p203
aVpne
p204
aVuu
p205
aVhi
p206
aVsyaa
p207
aVja
p208
aVpti
p209
aVye
p210
aVsuu
p211
aVryo
p212
aVjaa
p213
aVsii
p214
aVlaM
p215
aVteeM
p216
aVShTvaa
p217
aVGYii
p218
aVShTau
p219
aVse
p220
aVnaH
p221
aVktaM
p222
aVve
p223
aVrau
p224
aVdRRI
p225
aVyu
p226
aVNe
p227
aVntyaa
p228
aVmoo
p229
aVrkha
p230
aVbhoo
p231
aVnyaa
p232
aVShTe
p233
aVtau
p234
aVtyaa
p235
aVsi
p236
aVddhaa
p237
aVktu
p238
aVdyu
p239
aVktau
p240
aVxe
p241
aVpaH
p242
aVntyaaH
p243
aVsyaaH
p244
aVvai
p245
aVShtTya
p246
aVShTaH
p247
aViti
p248
aVjja
p249
aVsthi
p250
aVsma
p251
aVkha
p252
aVndra
p253
aVnto
p254
aVShe
p255
aVNi
p256
aVtyaM
p257
aVkii
p258
aVkhe
p259
aVntii
p260
aVrNi
p261
aVyaaM
p262
aVvaH
p263
aVre
p264
aVndha
p265
aVpu
p266
aVtrii
p267
aVrii
p268
aVkhyaa
p269
aVtiM
p270
aVrve
p271
aVShu
p272
aVdhaa
p273
aVsau
p274
aVrye
p275
aVShTaa
p276
aVtxa
p277
aVsRRi
p278
aVntaa
p279
aVsta
p280
aVndaa
p281
aVxii
p282
aVbhuu
p283
aVrthi
p284
aVnuu
p285
aVhyaa
p286
aVgha
p287
aVTa
p288
aVkhyaaH
p289
aVnte
p290
aVpaaM
p291
aVtiiM
p292
aVskRRi
p293
aVsvaM
p294
aVyaH
p295
aVShTha
p296
aVyaaH
p297
aVnaaM
p298
aVstraa
p299
aV~nja
p300
aVrma
p301
aVNaH
p302
aVjyo
p303
aVtuu
p304
aVntya
p305
aVShaaH
p306
aVShaM
p307
aVShTiH
p308
aVkrii
p309
aVthaM
p310
aVShtiiM
p311
aVdhRRi
p312
aVTe
p313
aVska
p314
aVndhe
p315
aVshu
p316
aVndi
p317
aVktvaa
p318
aVshaa
p319
aVlii
p320
aVr
aVhu
p321
aVgi
p322
aVDh
p323
aVRya
p324
aVsmRRi
p325
aVmii
p326
aVbdha
p327
aVShThaH
p328
aVhRRi
p329
aVtpuu
p330
aVshe
p331
aVdaaH
p332
aVtma
p333
aVdo
p334
aVjya
p335
aVNii
p336
aVxaaM
p337
aVnye
p338
aVmuu
p339
aV,
aVrhi
p340
aVDaM
p341
aVjii
p342
aVo
aVrge
p343
aVbhaa
p344
aVShyaa
p345
aVkhaa
p346
aVru
p347
aVrgha
p348
aVbaa
p349
aVvaaH
p350
aVrta
p351
aVtuM
p352
aVpre
p353
aVtmaa
p354
aVmbhaa
p355
aVrtu
p356
aVkno
p357
aVche
p358
aVtsa
p359
aVspa
p360
aVrshaa
p361
aVknu
p362
aVShaa
p363
aVhya
p364
aVliM
p365
aVShTva
p366
aV''
p367
aVntuM
p368
aVvaaM
p369
aVktiM
p370
aVje
p371
aVp
aVxya
p372
aVsiM
p373
aVhaH
p374
aVndaH
p375
aVsyaaM
p376
aVshra
p377
aVdvaa
p378
aV:
aVch
p379
aVDga
p380
aVhuu
p381
aVji
p382
aVtta
p383
aVau
p384
aVdhaM
p385
aVshrvaa
p386
aVpno
p387
aVtsaa
p388
aVdhi
p389
aVktiH
p390
aV.
aVryaM
p391
aVrdhii
p392
aVttaM
p393
aVDgaM
p394
aVjjii
p395
aVddhaH
p396
aVndaM
p397
aVso
p398
aVdraH
p399
aVtnii
p400
aVchcha
p401
aVchchii
p402
aVShaH
p403
aVthaH
p404
aVtti
p405
aVdraaM
p406
aVgaa
p407
aVdraa
p408
aVniiM
p409
aVkiM
p410
aVbhyaa
p411
aVxi
p412
aVShTaaH
p413
aVtnaM
p414
aVjaaH
p415
aVghii
p416
aVTi
p417
aVdva
p418
aVDu
p419
aVhau
p420
aVntau
p421
aVdhva
p422
aVdvau
p423
aVrjaa
p424
aVhii
p425
aVyoH
p426
aVtpaa
p427
aVnRRi
p428
aVlaH
p429
aVgu
p430
aVdyaa
p431
aVmpa
p432
aVnna
p433
aVgre
p434
aVtroH
p435
aVdhii
p436
aVshnaH
p437
aVshcha
p438
aV~nchaa
p439
aVrtuM
p440
aVyau
p441
aVDDa
p442
aVmba
p443
aVdu
p444
aVkteH
p445
aVShTyaa
p446
aVmaH
p447
aVndhu
p448
aVhe
p449
aVShi
p450
aVkhi
p451
aVnnau
p452
aVtryaaH
p453
aVnve
p454
aVsai
p455
aVh
aVbu
p456
aVShTu
p457
aVpaM
p458
aVndhre
p459
aVShTiM
p460
aVdnyaa
p461
aVshRRi
p462
aVbh
p463
aVchchha
p464
aVSTvaa
p465
aVchchh
p466
aVSa
p467
aVSya
p468
aVmaaM
p469
aV.a
p470
aVN^ke
p471
aVSaa
p472
aVSTa
p473
aVshva
p474
aVrNa
p475
aVbhiH
p476
aVviH
p477
aVGyaa
p478
aVruM
p479
aVsvaa
p480
aVstri
p481
aVbi
p482
aVmbe
p483
aVndraH
p484
aVgra
p485
aVmRRi
p486
aVnma
p487
aVlpa
p488
aVmyaa
p489
aVruH
p490
aVshlaa
p491
aVghi
p492
aVnnaH
p493
aVsnaa
p494
aVdiiM
p495
aVbho
p496
aVshr
p497
aVgraa
p498
aVchiH
p499
aVmmaa
p500
aVtkRRi
p501
aVndhuH
p502
aVkri
p503
aVho
p504
aVdau
p505
aVpha
p506
aVstaaM
p507
aVrshva
p508
aVDaa
p509
aVTuH
p510
aVvyaH
p511
aVtiH
p512
aVmro
p513
aVkyaM
p514
aVdhya
p515
aVskaH
p516
aVbhu
p517
aVsthaaM
p518
aVVYA
p519
aVI
aVTI
p520
aVnni
p521
aVrha
p522
aVjji
p523
aVmla
p524
aVriH
p525
aV~ncha
p526
aVtraaH
p527
aVjaH
p528
aVtva
p529
aVraaM
p530
aVrtya
p531
aVTii
p532
aVsyaM
p533
aVdvi
p534
aVtah
p535
aVci
p536
aVtki
p537
aVoyaH
p538
aVdaH
p539
aVtniiM
p540
aVbhe
p541
aVrtaa
p542
aVtaiH
p543
aVdhu
p544
aVvra
p545
aVdye
p546
aVtuH
p547
aVrdha
p548
aVrga
p549
aVRRi
p550
aVkuu
p551
aVbo
p552
aVdaM
p553
aVl
aVkShaa
p554
aVkai
p555
aVttaaM
p556
aVsaaM
p557
aVddha
p558
aVgho
p559
aVvyaa
p560
aVv
aVdhiH
p561
aVt!
p562
aVdhuH
p563
aVrki
p564
aVrja
p565
aV~Ngu
p566
aVmra
p567
aVyyaM
p568
aVryaa
p569
aVpii
p570
aVttaH
p571
aVkti
p572
aVyyM
p573
aVshrii
p574
aVkRii
p575
aVddhi
p576
a.